; Function Attrs: null_pointer_is_valid sspstrong uwtable
define internal noundef zeroext i1 @bytes_from_sinteger64(ptr noundef captures(none) %0, ptr noundef %1, i64 noundef %2, ptr noundef writeonly captures(address_is_null) %3) #0 {
  %5 = alloca i8, align 1
  %6 = icmp slt i64 %2, 0
  br i1 %6, label %7, label %10

7:                                                ; preds = %4
  %.not = icmp eq ptr %3, null
  br i1 %.not, label %bytes_from_uinteger64.exit, label %8

8:                                                ; preds = %7
  %9 = tail call noalias ptr (ptr, ptr, ...) @wmem_strdup_printf(ptr noundef null, ptr noundef nonnull @.str.19)
  store ptr %9, ptr %3, align 8
  br label %bytes_from_uinteger64.exit

10:                                               ; preds = %4
  %11 = icmp samesign ugt i64 %2, 255
  br i1 %11, label %12, label %byte_array_from_charconst.exit.i.i

12:                                               ; preds = %10
  %.not.i = icmp eq ptr %3, null
  br i1 %.not.i, label %bytes_from_uinteger64.exit, label %13

13:                                               ; preds = %12
  %14 = tail call noalias ptr (ptr, ptr, ...) @wmem_strdup_printf(ptr noundef null, ptr noundef nonnull @.str.18, ptr noundef %1)
  store ptr %14, ptr %3, align 8
  br label %bytes_from_uinteger64.exit

byte_array_from_charconst.exit.i.i:               ; preds = %10
  %15 = tail call ptr @g_byte_array_new()
  call void @llvm.lifetime.start.p0(i64 1, ptr nonnull %5) #12
  %16 = trunc nuw i64 %2 to i8
  store i8 %16, ptr %5, align 1
  %17 = call ptr @g_byte_array_append(ptr noundef %15, ptr noundef nonnull %5, i32 noundef 1)
  call void @llvm.lifetime.end.p0(i64 1, ptr nonnull %5) #12
  %.not.i.i = icmp eq ptr %15, null
  br i1 %.not.i.i, label %bytes_from_uinteger64.exit, label %18

18:                                               ; preds = %byte_array_from_charconst.exit.i.i
  %19 = getelementptr inbounds nuw i8, ptr %0, i64 8
  %20 = load ptr, ptr %19, align 8
  %.not.i7.i.i = icmp eq ptr %20, null
  br i1 %.not.i7.i.i, label %bytes_fvalue_free.exit.i.i, label %21

21:                                               ; preds = %18
  call void @g_bytes_unref(ptr noundef nonnull %20)
  store ptr null, ptr %19, align 8
  br label %bytes_fvalue_free.exit.i.i

bytes_fvalue_free.exit.i.i:                       ; preds = %21, %18
  %22 = call ptr @g_byte_array_free_to_bytes(ptr noundef nonnull %15)
  store ptr %22, ptr %19, align 8
  br label %bytes_from_uinteger64.exit

bytes_from_uinteger64.exit:                       ; preds = %bytes_fvalue_free.exit.i.i, %byte_array_from_charconst.exit.i.i, %13, %12, %7, %8
  %.0 = phi i1 [ false, %8 ], [ false, %7 ], [ false, %13 ], [ false, %12 ], [ false, %byte_array_from_charconst.exit.i.i ], [ true, %bytes_fvalue_free.exit.i.i ]
  ret i1 %.0
}